; Function Attrs: mustprogress uwtable
define void @_ZN6icu_7523StringCharacterIteratorC2ERKNS_13UnicodeStringEiii(ptr noundef nonnull align 8 dereferenceable(96) %this, ptr noundef nonnull align 8 dereferenceable(64) %textStr, i32 noundef %textBegin, i32 noundef %textEnd, i32 noundef %textPos) unnamed_addr #1 align 2 personality ptr @__gxx_personality_v0 {
entry:
  %agg.tmp = alloca %"class.icu_75::ConstChar16Ptr", align 8
  %fUnion.i = getelementptr inbounds i8, ptr %textStr, i64 8
  %0 = load i16, ptr %fUnion.i, align 8
  %conv1.i = zext i16 %0 to i32
  %and.i = and i32 %conv1.i, 17
  %tobool.not.i = icmp eq i32 %and.i, 0
  br i1 %tobool.not.i, label %if.else.i, label %invoke.cont

if.else.i:                                        ; preds = %entry
  %and5.i = and i32 %conv1.i, 2
  %tobool6.not.i = icmp eq i32 %and5.i, 0
  br i1 %tobool6.not.i, label %if.else9.i, label %if.then7.i

if.then7.i:                                       ; preds = %if.else.i
  %fBuffer.i = getelementptr inbounds i8, ptr %textStr, i64 10
  br label %invoke.cont

if.else9.i:                                       ; preds = %if.else.i
  %fArray.i = getelementptr inbounds i8, ptr %textStr, i64 24
  %1 = load ptr, ptr %fArray.i, align 8
  br label %invoke.cont

invoke.cont:                                      ; preds = %if.else9.i, %if.then7.i, %entry
  %retval.0.i = phi ptr [ %fBuffer.i, %if.then7.i ], [ %1, %if.else9.i ], [ null, %entry ]
  store ptr %retval.0.i, ptr %agg.tmp, align 8
  %cmp.i.i = icmp slt i16 %0, 0
  %2 = ashr i16 %0, 5
  %shr.i.i = sext i16 %2 to i32
  %fLength.i = getelementptr inbounds i8, ptr %textStr, i64 12
  %3 = load i32, ptr %fLength.i, align 4
  %cond.i = select i1 %cmp.i.i, i32 %3, i32 %shr.i.i
  invoke void @_ZN6icu_7522UCharCharacterIteratorC2ENS_14ConstChar16PtrEiiii(ptr noundef nonnull align 8 dereferenceable(32) %this, ptr noundef nonnull %agg.tmp, i32 noundef %cond.i, i32 noundef %textBegin, i32 noundef %textEnd, i32 noundef %textPos)
          to label %invoke.cont3 unwind label %lpad

invoke.cont3:                                     ; preds = %invoke.cont
  %4 = load ptr, ptr %agg.tmp, align 8
  call void asm sideeffect "", "rm,~{memory},~{dirflag},~{fpsr},~{flags}"(ptr %4) #6, !srcloc !4
  store ptr getelementptr inbounds ({ [29 x ptr] }, ptr @_ZTVN6icu_7523StringCharacterIteratorE, i64 0, i32 0, i64 2), ptr %this, align 8
  %text = getelementptr inbounds i8, ptr %this, i64 32
  invoke void @_ZN6icu_7513UnicodeStringC1ERKS0_(ptr noundef nonnull align 8 dereferenceable(64) %text, ptr noundef nonnull align 8 dereferenceable(64) %textStr)
          to label %invoke.cont5 unwind label %lpad4

invoke.cont5:                                     ; preds = %invoke.cont3
  %fUnion.i4 = getelementptr inbounds i8, ptr %this, i64 40
  %5 = load i16, ptr %fUnion.i4, align 8
  %conv1.i5 = zext i16 %5 to i32
  %and.i6 = and i32 %conv1.i5, 17
  %tobool.not.i7 = icmp eq i32 %and.i6, 0
  br i1 %tobool.not.i7, label %if.else.i9, label %_ZNK6icu_7513UnicodeString9getBufferEv.exit16

if.else.i9:                                       ; preds = %invoke.cont5
  %and5.i10 = and i32 %conv1.i5, 2
  %tobool6.not.i11 = icmp eq i32 %and5.i10, 0
  br i1 %tobool6.not.i11, label %if.else9.i14, label %if.then7.i12

if.then7.i12:                                     ; preds = %if.else.i9
  %fBuffer.i13 = getelementptr inbounds i8, ptr %this, i64 42
  br label %_ZNK6icu_7513UnicodeString9getBufferEv.exit16

if.else9.i14:                                     ; preds = %if.else.i9
  %fArray.i15 = getelementptr inbounds i8, ptr %this, i64 56
  %6 = load ptr, ptr %fArray.i15, align 8
  br label %_ZNK6icu_7513UnicodeString9getBufferEv.exit16

_ZNK6icu_7513UnicodeString9getBufferEv.exit16:    ; preds = %invoke.cont5, %if.then7.i12, %if.else9.i14
  %retval.0.i8 = phi ptr [ %fBuffer.i13, %if.then7.i12 ], [ %6, %if.else9.i14 ], [ null, %invoke.cont5 ]
  %text10 = getelementptr inbounds i8, ptr %this, i64 24
  store ptr %retval.0.i8, ptr %text10, align 8
  ret void

lpad:                                             ; preds = %invoke.cont
  %7 = landingpad { ptr, i32 }
          cleanup
  %8 = load ptr, ptr %agg.tmp, align 8
  call void asm sideeffect "", "rm,~{memory},~{dirflag},~{fpsr},~{flags}"(ptr %8) #6, !srcloc !4
  br label %eh.resume

lpad4:                                            ; preds = %invoke.cont3
  %9 = landingpad { ptr, i32 }
          cleanup
  call void @_ZN6icu_7522UCharCharacterIteratorD2Ev(ptr noundef nonnull align 8 dereferenceable(32) %this) #6
  br label %eh.resume

eh.resume:                                        ; preds = %lpad4, %lpad
  %.pn = phi { ptr, i32 } [ %9, %lpad4 ], [ %7, %lpad ]
  resume { ptr, i32 } %.pn
}